; Function Attrs: mustprogress uwtable
define dso_local void @_ZN6btDbvt6updateEP10btDbvtNodeR12btDbvtAabbMm(ptr nocapture noundef nonnull align 8 dereferenceable(64) %this, ptr noundef %leaf, ptr nocapture noundef nonnull readonly align 4 dereferenceable(32) %volume) local_unnamed_addr #2 align 2 {
entry:
  %call = tail call fastcc noundef ptr @_ZL10removeleafP6btDbvtP10btDbvtNode(ptr noundef nonnull %this, ptr noundef %leaf)
  %tobool.not = icmp eq ptr %call, null
  br i1 %tobool.not, label %if.end7, label %if.then

if.then:                                          ; preds = %entry
  %m_lkhd = getelementptr inbounds i8, ptr %this, i64 16
  %0 = load i32, ptr %m_lkhd, align 8
  %cmp = icmp sgt i32 %0, -1
  br i1 %cmp, label %for.cond.preheader, label %if.else

for.cond.preheader:                               ; preds = %if.then
  %cmp47.not = icmp eq i32 %0, 0
  br i1 %cmp47.not, label %if.end7, label %land.rhs

for.cond:                                         ; preds = %land.rhs
  %inc = add nuw nsw i32 %i.09, 1
  %exitcond.not = icmp eq i32 %inc, %0
  br i1 %exitcond.not, label %if.end7, label %land.rhs, !llvm.loop !31

land.rhs:                                         ; preds = %for.cond.preheader, %for.cond
  %i.09 = phi i32 [ %inc, %for.cond ], [ 0, %for.cond.preheader ]
  %root.08 = phi ptr [ %1, %for.cond ], [ %call, %for.cond.preheader ]
  %parent = getelementptr inbounds i8, ptr %root.08, i64 32
  %1 = load ptr, ptr %parent, align 8
  %tobool5.not = icmp eq ptr %1, null
  br i1 %tobool5.not, label %if.end7, label %for.cond

if.else:                                          ; preds = %if.then
  %2 = load ptr, ptr %this, align 8
  br label %if.end7

if.end7:                                          ; preds = %land.rhs, %for.cond, %for.cond.preheader, %if.else, %entry
  %root.1 = phi ptr [ %2, %if.else ], [ null, %entry ], [ %call, %for.cond.preheader ], [ %root.08, %land.rhs ], [ %1, %for.cond ]
  tail call void @llvm.memcpy.p0.p0.i64(ptr noundef nonnull align 8 dereferenceable(32) %leaf, ptr noundef nonnull align 4 dereferenceable(32) %volume, i64 32, i1 false)
  tail call fastcc void @_ZL10insertleafP6btDbvtP10btDbvtNodeS2_(ptr noundef nonnull %this, ptr noundef %root.1, ptr noundef %leaf)
  ret void
}